(lp0
ccopy_reg
_reconstructor
p1
(cespnff.espnff
League
p2
c__builtin__
object
p3
Ntp4
Rp5
(dp6
S'status'
p7
I200
sS'ENDPOINT'
p8
S'http://games.espn.com/ffl/api/v2/'
p9
sS'settings'
p10
g1
(cespnff.espnff
Settings
p11
g3
Ntp12
Rp13
(dp14
g7
Vplayoffs
p15
sS'playoff_team_count'
p16
I6
sS'reg_season_count'
p17
I13
sS'trade_deadline'
p18
V2017-12-21T17:00:00.000Z
p19
sS'undroppable_list'
p20
I01
sS'roster'
p21
(dp22
S'BE'
p23
I6
sS'K'
p24
I1
sS'RB/WR/TE'
p25
I1
sS'QB'
p26
I1
sS'WR'
p27
I2
sS'RB'
p28
I2
sS'TE'
p29
I1
sS'D/ST'
p30
I1
ssS'tie_rule'
p31
S'None'
p32
sS'playoff_seed_tie_rule'
p33
S'Total Points For'
p34
sS'final_season_count'
p35
I16
sS'veto_votes_required'
p36
I4
sS'server_date'
p37
V2017-12-15T23:30:17.935Z
p38
sS'keeper_count'
p39
I2
sS'year'
p40
V2017
p41
sS'team_count'
p42
I12
sS'id'
p43
I412124
sS'name'
p44
VFreddie's Fuck Puppets
p45
sbsS'league_id'
p46
I412124
sS'teams'
p47
(lp48
g1
(cespnff.espnff
Team
p49
g3
Ntp50
Rp51
(dp52
S'division_id'
p53
I0
sS'division_name'
p54
VFuck Puppets
p55
sS'points_against'
p56
F1174.85
sS'wins'
p57
I8
sS'losses'
p58
I5
sS'mov'
p59
(lp60
F3.299999999999997
aF9.699999999999989
aF-20.75
aF34.550000000000004
aF-31.299999999999983
aF19.10000000000001
aF22.699999999999996
aF-26.450000000000003
aF-36.8
aF-16.75
aF11.049999999999997
aF23.25
aF0.7000000000000028
aF-47.8
aI0
asS'schedule'
p61
(lp62
g1
(g49
g3
Ntp63
Rp64
(dp65
g53
I0
sg54
VFuck Puppets
p66
sg56
F1229.2
sg57
I5
sg58
I8
sg59
(lp67
F-3.299999999999997
aF-7.700000000000003
aF-28.450000000000003
aF6.799999999999997
aF-40.3
aF11.0
aF7.599999999999994
aF15.349999999999994
aF-43.95
aF-11.5
aF38.55000000000001
aF-23.25
aF-33.400000000000006
aF-3.5
aF7.9
asg61
(lp68
g51
ag1
(g49
g3
Ntp69
Rp70
(dp71
g53
I0
sg54
VFuck Puppets
p72
sg56
F1294.8
sg57
I8
sg58
I5
sg59
(lp73
F9.700000000000003
aF7.700000000000003
aF-15.5
aF11.950000000000003
aF31.299999999999983
aF39.05
aF-40.55000000000001
aF-19.400000000000006
aF2.6999999999999886
aF-19.450000000000003
aF-19.10000000000001
aF43.55
aF33.400000000000006
aF-5.200000000000003
aI0
asg61
(lp74
g1
(g49
g3
Ntp75
Rp76
(dp77
g53
I0
sg54
VFuck Puppets
p78
sg56
F1239.3
sg57
I2
sg58
I11
sg59
(lp79
F-9.700000000000003
aF-14.600000000000009
aF-6.75
aF-14.900000000000006
aF-28.699999999999996
aF-2.450000000000003
aF-22.450000000000003
aF-15.349999999999994
aF-10.200000000000003
aF10.849999999999994
aF-11.049999999999997
aF-43.55
aF22.450000000000003
aF8.599999999999994
aI0
asg61
(lp80
g70
ag1
(g49
g3
Ntp81
Rp82
(dp83
g53
I0
sg54
VFuck Puppets
p84
sg56
F1251.85
sg57
I6
sg58
I7
sg59
(lp85
F-6.099999999999994
aF14.600000000000009
aF28.450000000000003
aF19.44999999999999
aF-3.700000000000003
aF-19.10000000000001
aF40.55000000000001
aF4.25
aF-5.049999999999997
aF-0.3499999999999943
aF35.650000000000006
aF-29.349999999999994
aF-22.450000000000003
aF3.5999999999999943
aF5.1
asg61
(lp86
g1
(g49
g3
Ntp87
Rp88
(dp89
g53
I0
sg54
VFuck Puppets
p90
sg56
F1369.6
sg57
I8
sg58
I5
sg59
(lp91
F6.099999999999994
aF-2.0999999999999943
aF35.44999999999999
aF-53.750000000000014
aF28.849999999999994
aF2.450000000000003
aF-7.599999999999994
aF-74.95
aF27.400000000000006
aF16.75
aF19.10000000000001
aF29.349999999999994
aF-18.049999999999997
aF5.200000000000003
aI0
asg61
(lp92
g82
ag1
(g49
g3
Ntp93
Rp94
(dp95
g53
I0
sg54
VFuck Puppets
p96
sg56
F1185.35
sg57
I10
sg58
I3
sg59
(lp97
F12.300000000000011
aF2.0999999999999943
aF6.75
aF-6.799999999999997
aF20.799999999999997
aF33.750000000000014
aF-22.699999999999996
aF19.400000000000006
aF5.049999999999997
aF1.2999999999999972
aF-49.49999999999999
aF21.75
aF18.049999999999997
aF0.0
aI0
asg61
(lp98
g1
(g49
g3
Ntp99
Rp100
(dp101
g53
I0
sg54
VFuck Puppets
p102
sg56
F1226.8
sg57
I7
sg58
I6
sg59
(lp103
F-12.300000000000011
aF-22.049999999999997
aF39.5
aF53.750000000000014
aF28.699999999999996
aF-11.0
aF-3.3999999999999915
aF10.25
aF36.8
aF19.450000000000003
aF-35.650000000000006
aF-21.75
aF2.5
aF-3.5999999999999943
aI0
asg61
(lp104
g94
ag1
(g49
g3
Ntp105
Rp106
(dp107
g53
I0
sg54
VFuck Puppets
p108
sg56
F1329.45
sg57
I8
sg58
I5
sg59
(lp109
F31.549999999999997
aF22.049999999999997
aF-35.44999999999999
aF14.900000000000006
aF40.3
aF-13.400000000000006
aF0.7000000000000028
aF26.450000000000003
aF-2.6999999999999886
aF0.3499999999999943
aF49.49999999999999
aF-81.15
aF-2.5
aF47.8
aI0
asg61
(lp110
g1
(g49
g3
Ntp111
Rp112
(dp113
g53
I0
sg54
VFuck Puppets
p114
sg56
F1328.05
sg57
I4
sg58
I9
sg59
(lp115
F-31.549999999999997
aF-12.599999999999994
aF-39.5
aF-34.550000000000004
aF-28.849999999999994
aF-39.05
aF22.450000000000003
aF-4.25
aF43.95
aF-1.2999999999999972
aF-75.95
aF81.15
aF37.05
aF3.5
aF-5.1
asg61
(lp116
g106
ag1
(g49
g3
Ntp117
Rp118
(dp119
g53
I0
sg54
VFuck Puppets
p120
sg56
F1394.2
sg57
I3
sg58
I10
sg59
(lp121
F-30.700000000000003
aF12.599999999999994
aF20.75
aF-11.950000000000003
aF3.700000000000003
aF-33.750000000000014
aF-0.7000000000000028
aF-10.25
aF-27.400000000000006
aF-10.849999999999994
aF-38.55000000000001
aF-26.849999999999994
aF-37.05
aF-8.599999999999994
aF-7.9
asg61
(lp122
g1
(g49
g3
Ntp123
Rp124
(dp125
g53
I0
sg54
VFuck Puppets
p126
sg56
F1230.75
sg57
I9
sg58
I4
sg59
(lp127
F30.700000000000003
aF-9.699999999999989
aF15.5
aF-19.44999999999999
aF-20.799999999999997
aF13.400000000000006
aF3.3999999999999915
aF74.95
aF10.200000000000003
aF11.5
aF75.95
aF26.849999999999994
aF-0.7000000000000028
aF0.0
aI0
asg61
(lp128
g118
ag51
ag70
ag82
ag94
ag106
ag100
ag88
ag76
ag64
ag112
ag118
ag51
ag124
ag106
asS'points_for'
p129
F1442.55
sS'team_abbrev'
p130
V206
p131
sS'team_id'
p132
I14
sS'scores'
p133
(lp134
F100.8
aF70.4
aF120.65
aF125.15
aF79.5
aF92.9
aF114.3
aF142.5
aF95.65
aF104.9
aI161
aF117.25
aF117.55
aF143.25
aI0
asS'owner'
p135
VJake S
p136
sS'team_name'
p137
VBefore  Night Rawls
p138
sbag112
ag51
ag70
ag82
ag94
ag106
ag100
ag88
ag76
ag64
ag124
ag112
ag76
ag64
asg129
F1203.2
sg130
VWMTF
p139
sg132
I5
sg133
(lp140
F70.1
aF90.8
aF113.05
aF81.75
aF91.45
aF95.05
aF95.7
aF93.2
aF113.5
aF98.9
aF93.6
aF90.4
aF75.7
aF76.2
aI0
asg135
VJoseph Hiatt
p141
sg137
VChristian Science
p142
sbag100
ag51
ag88
ag70
ag76
ag82
ag64
ag94
ag124
ag106
ag118
ag64
ag82
asg129
F1245.05
sg130
VGILL
p143
sg132
I15
sg133
(lp144
F93.2
aF78.2
aI68
aF57.85
aF74.2
aF86.95
aF122.75
aF90.75
aF106.2
aF91.9
aF85.05
aF177.25
aF112.75
aF86.05
aI0
asg135
VBaj Gill
p145
sg137
VBenny Lava
p146
sbag100
ag88
ag76
ag64
ag124
ag118
ag51
ag70
ag82
ag94
ag112
ag100
ag51
ag124
asg129
F1380.05
sg130
Vdug
p147
sg132
I3
sg133
(lp148
F124.75
aF116.95
aF105.15
aF102.25
aF107.45
aF79.5
aF96.4
aF113.55
aF110.65
aF109.35
aF112.35
aF96.1
aF105.6
aF120.45
aI0
asg135
Vdug alan
p149
sg137
Vcan you dug it?
p150
sbag112
ag88
ag76
ag64
ag124
ag118
ag51
ag70
ag82
ag94
ag106
ag82
ag76
asg129
F1311.6
sg130
VTMM
p151
sg132
I11
sg133
(lp152
F97.1
aF94.9
aF107.5
aF147.3
aF91.1
aF94.1
aF110.9
aF103.45
aF102.55
aF90.15
aF79.1
aF85.35
aF108.1
aF103.25
aI0
asg135
VDave Simon
p153
sg137
VToo Many Massholes
p154
sbag88
ag76
ag64
ag124
ag118
ag51
ag70
ag82
ag112
ag106
ag100
ag88
ag94
ag88
asg129
F1247.6
sg130
VPAPB
p155
sg132
I10
sg133
(lp156
F109.4
aF95.85
aF90.55
aF73.7
aF100.3
aF128.8
aF46.15
aF126.65
aF89.7
aF93.2
aF62.85
aF107.1
aF123.35
aF71.9
aI0
asg135
VMatt Davis-Ratner
p157
sg137
VPass Around Party Bottom
p158
sbag106
ag100
ag112
ag76
ag64
ag124
ag118
ag51
ag70
ag82
ag94
ag70
ag94
asg129
F1378.6
sg130
VFRED
p159
sg132
I6
sg133
(lp160
F81.35
aF93.75
aF140.6
aF93.55
aF103.05
aF104.95
aF93.65
aF67.55
aF140.9
aF101.2
aF127.4
aF125.35
aF105.3
aF101.55
aI0
asg135
VKeith Avila
p161
sg137
V Freddie Mercury
p162
sbag76
ag64
ag124
ag118
ag51
ag70
ag112
ag94
ag106
ag100
ag88
ag76
ag100
ag112
asg129
F1308.7
sg130
VCHUM
p163
sg132
I2
sg133
(lp164
F75.25
aF80.7
aF87.65
aF144.6
aF87.75
aF98.55
aF137.05
aI95
aF84.65
aI109
aF114.75
aI96
aF97.75
aF106.85
aF5.1
asg135
VBryan Kelley
p165
sg137
VChump Busters
p166
sbag94
ag106
ag100
ag88
ag112
ag64
ag124
ag118
ag51
ag70
ag82
ag118
ag100
asg129
F1092.9
sg130
VED
p167
sg132
I12
sg133
(lp168
F75.1
aF66.1
aF83.8
aF87.35
aF62.4
aF102.5
aF100.3
aF73.7
aF85.45
aF109.75
aF64.7
aF61.55
aF120.2
aF84.8
aI0
asg135
VWilt Chamberlain
p169
sg137
VHarbaugh's Whiskey Dick
p170
sbag64
ag124
ag118
ag51
ag112
ag82
ag94
ag106
ag100
ag88
ag76
ag64
ag88
ag51
asg129
F1360.15
sg130
VIORI
p171
sg132
I13
sg133
(lp172
F84.8
aF120.2
aF105.15
aF93.7
aF135.45
aI126
aF96.5
aF107.25
aF113.35
aF70.7
aF108.3
aF105.1
aF93.65
aF96.35
aI0
asg135
VKevin Iori
p173
sg137
VNostra Dongus
p174
sbag82
ag94
ag106
ag100
ag88
ag76
ag112
ag124
ag118
ag51
ag70
ag112
ag118
asg129
F1116.65
sg130
VTITS
p175
sg132
I8
sg133
(lp176
F84.05
aF112.5
aF59.2
aF80.5
aF67.15
aF105.1
aF101.25
aF89.05
aF62.25
aF93.4
aF132.15
aF69.8
aF60.25
aF82.55
aF7.9
asg135
VAdam Freedman
p177
sg137
VWalrus Petos
p178
sbag124
ag118
ag112
ag70
ag82
ag94
ag106
ag100
ag88
ag76
ag64
ag124
ag106
ag70
asg129
F1167.15
sg130
VDon
p179
sg132
I1
sg133
(lp180
F87.35
aF80.1
aF92.3
aF92.4
aF104.15
aF117.65
aF68.85
aF87.1
aF65.75
aF84.45
aF75.75
aF93.05
aF118.25
aF72.65
aI0
asg135
VWoody Glier
p181
sg137
VDon The Decider
p182
sbag82
ag106
ag118
ag88
ag64
ag94
ag100
ag76
ag70
ag124
ag112
asg40
I2017
sba(lp183
(lp184
(lp185
(idataStructures
gameInfo
p186
(dp187
S'week'
p188
I1
sS'awayScore'
p189
F93.2
sS'homeTeam'
p190
I3
sS'homeScore'
p191
F124.75
sS'awayTeam'
p192
I15
sS'game'
p193
I1
sba(idataStructures
gameInfo
p194
(dp195
g188
I1
sg189
F70.1
sg190
I14
sg191
F100.8
sg192
I5
sg193
I2
sba(idataStructures
gameInfo
p196
(dp197
g188
I1
sg189
F97.1
sg190
I10
sg191
F109.4
sg192
I11
sg193
I3
sba(idataStructures
gameInfo
p198
(dp199
g188
I1
sg189
F87.35
sg190
I8
sg191
F84.05
sg192
I1
sg193
I4
sba(idataStructures
gameInfo
p200
(dp201
g188
I1
sg189
F81.35
sg190
I2
sg191
F75.25
sg192
I6
sg193
I5
sba(idataStructures
gameInfo
p202
(dp203
g188
I1
sg189
F84.8
sg190
I12
sg191
F75.1
sg192
I13
sg193
I6
sbaaI1
aa(lp204
(lp205
(idataStructures
gameInfo
p206
(dp207
g188
I2
sg189
F90.8
sg190
I15
sg191
F78.2
sg192
I5
sg193
I1
sba(idataStructures
gameInfo
p208
(dp209
g188
I2
sg189
F116.95
sg190
I11
sg191
F94.9
sg192
I3
sg193
I2
sba(idataStructures
gameInfo
p210
(dp211
g188
I2
sg189
F70.4
sg190
I1
sg191
F80.1
sg192
I14
sg193
I3
sba(idataStructures
gameInfo
p212
(dp213
g188
I2
sg189
F95.85
sg190
I6
sg191
F93.75
sg192
I10
sg193
I4
sba(idataStructures
gameInfo
p214
(dp215
g188
I2
sg189
F112.5
sg190
I13
sg191
F120.2
sg192
I8
sg193
I5
sba(idataStructures
gameInfo
p216
(dp217
g188
I2
sg189
F80.7
sg190
I12
sg191
F66.1
sg192
I2
sg193
I6
sbaaI1
aa(lp218
(lp219
(idataStructures
gameInfo
p220
(dp221
g188
I3
sg189
I68
sg190
I11
sg191
F107.5
sg192
I15
sg193
I1
sba(idataStructures
gameInfo
p222
(dp223
g188
I3
sg189
F92.3
sg190
I5
sg191
F113.05
sg192
I1
sg193
I2
sba(idataStructures
gameInfo
p224
(dp225
g188
I3
sg189
F140.6
sg190
I3
sg191
F105.15
sg192
I6
sg193
I3
sba(idataStructures
gameInfo
p226
(dp227
g188
I3
sg189
F105.15
sg190
I14
sg191
F120.65
sg192
I13
sg193
I4
sba(idataStructures
gameInfo
p228
(dp229
g188
I3
sg189
F83.8
sg190
I10
sg191
F90.55
sg192
I12
sg193
I5
sba(idataStructures
gameInfo
p230
(dp231
g188
I3
sg189
F87.65
sg190
I8
sg191
F59.2
sg192
I2
sg193
I6
sbaaI1
aa(lp232
(lp233
(idataStructures
gameInfo
p234
(dp235
g188
I4
sg189
F92.4
sg190
I15
sg191
F57.85
sg192
I1
sg193
I1
sba(idataStructures
gameInfo
p236
(dp237
g188
I4
sg189
F147.3
sg190
I6
sg191
F93.55
sg192
I11
sg193
I2
sba(idataStructures
gameInfo
p238
(dp239
g188
I4
sg189
F81.75
sg190
I13
sg191
F93.7
sg192
I5
sg193
I3
sba(idataStructures
gameInfo
p240
(dp241
g188
I4
sg189
F102.25
sg190
I12
sg191
F87.35
sg192
I3
sg193
I4
sba(idataStructures
gameInfo
p242
(dp243
g188
I4
sg189
F125.15
sg190
I2
sg191
F144.6
sg192
I14
sg193
I5
sba(idataStructures
gameInfo
p244
(dp245
g188
I4
sg189
F73.7
sg190
I8
sg191
F80.5
sg192
I10
sg193
I6
sbaaI1
aa(lp246
(lp247
(idataStructures
gameInfo
p248
(dp249
g188
I5
sg189
F74.2
sg190
I6
sg191
F103.05
sg192
I15
sg193
I1
sba(idataStructures
gameInfo
p250
(dp251
g188
I5
sg189
F135.45
sg190
I1
sg191
F104.15
sg192
I13
sg193
I2
sba(idataStructures
gameInfo
p252
(dp253
g188
I5
sg189
F62.4
sg190
I11
sg191
F91.1
sg192
I12
sg193
I3
sba(idataStructures
gameInfo
p254
(dp255
g188
I5
sg189
F87.75
sg190
I5
sg191
F91.45
sg192
I2
sg193
I4
sba(idataStructures
gameInfo
p256
(dp257
g188
I5
sg189
F67.15
sg190
I3
sg191
F107.45
sg192
I8
sg193
I5
sba(idataStructures
gameInfo
p258
(dp259
g188
I5
sg189
F100.3
sg190
I14
sg191
F79.5
sg192
I10
sg193
I6
sbaaI1
aa(lp260
(lp261
(idataStructures
gameInfo
p262
(dp263
g188
I6
sg189
I126
sg190
I15
sg191
F86.95
sg192
I13
sg193
I1
sba(idataStructures
gameInfo
p264
(dp265
g188
I6
sg189
F104.95
sg190
I12
sg191
F102.5
sg192
I6
sg193
I2
sba(idataStructures
gameInfo
p266
(dp267
g188
I6
sg189
F117.65
sg190
I2
sg191
F98.55
sg192
I1
sg193
I3
sba(idataStructures
gameInfo
p268
(dp269
g188
I6
sg189
F94.1
sg190
I8
sg191
F105.1
sg192
I11
sg193
I4
sba(idataStructures
gameInfo
p270
(dp271
g188
I6
sg189
F95.05
sg190
I10
sg191
F128.8
sg192
I5
sg193
I5
sba(idataStructures
gameInfo
p272
(dp273
g188
I6
sg189
F79.5
sg190
I14
sg191
F92.9
sg192
I3
sg193
I6
sbaaI1
aa(lp274
(lp275
(idataStructures
gameInfo
p276
(dp277
g188
I7
sg189
F122.75
sg190
I12
sg191
F100.3
sg192
I15
sg193
I1
sba(idataStructures
gameInfo
p278
(dp279
g188
I7
sg189
F137.05
sg190
I13
sg191
F96.5
sg192
I2
sg193
I2
sba(idataStructures
gameInfo
p280
(dp281
g188
I7
sg189
F101.25
sg190
I6
sg191
F93.65
sg192
I8
sg193
I3
sba(idataStructures
gameInfo
p282
(dp283
g188
I7
sg189
F46.15
sg190
I1
sg191
F68.85
sg192
I10
sg193
I4
sba(idataStructures
gameInfo
p284
(dp285
g188
I7
sg189
F114.3
sg190
I11
sg191
F110.9
sg192
I14
sg193
I5
sba(idataStructures
gameInfo
p286
(dp287
g188
I7
sg189
F96.4
sg190
I5
sg191
F95.7
sg192
I3
sg193
I6
sbaaI1
aa(lp288
(lp289
(idataStructures
gameInfo
p290
(dp291
g188
I8
sg189
I95
sg190
I15
sg191
F90.75
sg192
I2
sg193
I1
sba(idataStructures
gameInfo
p292
(dp293
g188
I8
sg189
F73.7
sg190
I8
sg191
F89.05
sg192
I12
sg193
I2
sba(idataStructures
gameInfo
p294
(dp295
g188
I8
sg189
F107.25
sg190
I10
sg191
F126.65
sg192
I13
sg193
I3
sba(idataStructures
gameInfo
p296
(dp297
g188
I8
sg189
F67.55
sg190
I14
sg191
F142.5
sg192
I6
sg193
I4
sba(idataStructures
gameInfo
p298
(dp299
g188
I8
sg189
F87.1
sg190
I3
sg191
F113.55
sg192
I1
sg193
I5
sba(idataStructures
gameInfo
p300
(dp301
g188
I8
sg189
F103.45
sg190
I5
sg191
F93.2
sg192
I11
sg193
I6
sbaaI1
aa(lp302
(lp303
(idataStructures
gameInfo
p304
(dp305
g188
I9
sg189
F106.2
sg190
I8
sg191
F62.25
sg192
I15
sg193
I1
sba(idataStructures
gameInfo
p306
(dp307
g188
I9
sg189
F89.7
sg190
I2
sg191
F84.65
sg192
I10
sg193
I2
sba(idataStructures
gameInfo
p308
(dp309
g188
I9
sg189
F95.65
sg190
I12
sg191
F85.45
sg192
I14
sg193
I3
sba(idataStructures
gameInfo
p310
(dp311
g188
I9
sg189
F110.65
sg190
I13
sg191
F113.35
sg192
I3
sg193
I4
sba(idataStructures
gameInfo
p312
(dp313
g188
I9
sg189
F113.5
sg190
I6
sg191
F140.9
sg192
I5
sg193
I5
sba(idataStructures
gameInfo
p314
(dp315
g188
I9
sg189
F102.55
sg190
I1
sg191
F65.75
sg192
I11
sg193
I6
sbaaI1
aa(lp316
(lp317
(idataStructures
gameInfo
p318
(dp319
g188
I10
sg189
F93.2
sg190
I15
sg191
F91.9
sg192
I10
sg193
I1
sba(idataStructures
gameInfo
p320
(dp321
g188
I10
sg189
F93.4
sg190
I14
sg191
F104.9
sg192
I8
sg193
I2
sba(idataStructures
gameInfo
p322
(dp323
g188
I10
sg189
I109
sg190
I3
sg191
F109.35
sg192
I2
sg193
I3
sba(idataStructures
gameInfo
p324
(dp325
g188
I10
sg189
F109.75
sg190
I5
sg191
F98.9
sg192
I12
sg193
I4
sba(idataStructures
gameInfo
p326
(dp327
g188
I10
sg189
F70.7
sg190
I11
sg191
F90.15
sg192
I13
sg193
I5
sba(idataStructures
gameInfo
p328
(dp329
g188
I10
sg189
F101.2
sg190
I1
sg191
F84.45
sg192
I6
sg193
I6
sbaaI1
aa(lp330
(lp331
(idataStructures
gameInfo
p332
(dp333
g188
I11
sg189
F85.05
sg190
I14
sg191
I161
sg192
I15
sg193
I1
sba(idataStructures
gameInfo
p334
(dp335
g188
I11
sg189
F112.35
sg190
I10
sg191
F62.85
sg192
I3
sg193
I2
sba(idataStructures
gameInfo
p336
(dp337
g188
I11
sg189
F93.6
sg190
I8
sg191
F132.15
sg192
I5
sg193
I3
sba(idataStructures
gameInfo
p338
(dp339
g188
I11
sg189
F79.1
sg190
I2
sg191
F114.75
sg192
I11
sg193
I4
sba(idataStructures
gameInfo
p340
(dp341
g188
I11
sg189
F75.75
sg190
I12
sg191
F64.7
sg192
I1
sg193
I5
sba(idataStructures
gameInfo
p342
(dp343
g188
I11
sg189
F127.4
sg190
I13
sg191
F108.3
sg192
I6
sg193
I6
sbaaI1
aa(lp344
(lp345
(idataStructures
gameInfo
p346
(dp347
g188
I12
sg189
F96.1
sg190
I15
sg191
F177.25
sg192
I3
sg193
I1
sba(idataStructures
gameInfo
p348
(dp349
g188
I12
sg189
F117.25
sg190
I5
sg191
F90.4
sg192
I14
sg193
I2
sba(idataStructures
gameInfo
p350
(dp351
g188
I12
sg189
F107.1
sg190
I11
sg191
F85.35
sg192
I10
sg193
I3
sba(idataStructures
gameInfo
p352
(dp353
g188
I12
sg189
F69.8
sg190
I1
sg191
F93.05
sg192
I8
sg193
I4
sba(idataStructures
gameInfo
p354
(dp355
g188
I12
sg189
I96
sg190
I6
sg191
F125.35
sg192
I2
sg193
I5
sba(idataStructures
gameInfo
p356
(dp357
g188
I12
sg189
F61.55
sg190
I13
sg191
F105.1
sg192
I12
sg193
I6
sbaaI1
aa(lp358
(lp359
(idataStructures
gameInfo
p360
(dp361
g188
I13
sg189
F112.75
sg190
I5
sg191
F75.7
sg192
I15
sg193
I1
sba(idataStructures
gameInfo
p362
(dp363
g188
I13
sg189
F108.1
sg190
I3
sg191
F105.6
sg192
I11
sg193
I2
sba(idataStructures
gameInfo
p364
(dp365
g188
I13
sg189
F118.25
sg190
I14
sg191
F117.55
sg192
I1
sg193
I3
sba(idataStructures
gameInfo
p366
(dp367
g188
I13
sg189
F105.3
sg190
I10
sg191
F123.35
sg192
I6
sg193
I4
sba(idataStructures
gameInfo
p368
(dp369
g188
I13
sg189
F93.65
sg190
I8
sg191
F60.25
sg192
I13
sg193
I5
sba(idataStructures
gameInfo
p370
(dp371
g188
I13
sg189
F120.2
sg190
I2
sg191
F97.75
sg192
I12
sg193
I6
sbaaI1
aaaI13
a(dp372
I1
I0
sI2
I1
sI3
I2
sI5
I3
sI6
I4
sI8
I5
sI10
I6
sI11
I7
sI12
I8
sI13
I9
sI14
I10
sI15
I11
sa.